target datalayout = "e-m:e-p270:32:32-p271:32:32-p272:64:64-i64:64-i128:128-f80:128-n8:16:32:64-S128"
target triple = "x86_64-pc-linux-gnu"

%struct.grpc_tls_certificate_provider = type { %"class.grpc_core::RefCounted" }
%"class.grpc_core::RefCounted" = type { %"class.grpc_core::PolymorphicRefCount", %"class.grpc_core::RefCount" }
%"class.grpc_core::PolymorphicRefCount" = type { ptr }
%"class.grpc_core::RefCount" = type { %"struct.std::atomic" }
%"struct.std::atomic" = type { %"struct.std::__atomic_base" }
%"struct.std::__atomic_base" = type { i64 }
%"class.grpc_core::RefCountedPtr" = type { ptr }
%"class.std::__cxx11::basic_string" = type { %"struct.std::__cxx11::basic_string<char>::_Alloc_hider", i64, %union.anon }
%"struct.std::__cxx11::basic_string<char>::_Alloc_hider" = type { ptr }
%union.anon = type { i64, [8 x i8] }
%"class.std::vector" = type { %"struct.std::_Vector_base" }
%"struct.std::_Vector_base" = type { %"struct.std::_Vector_base<grpc_core::PemKeyCertPair, std::allocator<grpc_core::PemKeyCertPair>>::_Vector_impl" }
%"struct.std::_Vector_base<grpc_core::PemKeyCertPair, std::allocator<grpc_core::PemKeyCertPair>>::_Vector_impl" = type { %"struct.std::_Vector_base<grpc_core::PemKeyCertPair, std::allocator<grpc_core::PemKeyCertPair>>::_Vector_impl_data" }
%"struct.std::_Vector_base<grpc_core::PemKeyCertPair, std::allocator<grpc_core::PemKeyCertPair>>::_Vector_impl_data" = type { ptr, ptr, ptr }
%"class.absl::lts_20240722::Mutex" = type { %"struct.std::atomic" }
%"struct.std::_Rb_tree_header" = type { %"struct.std::_Rb_tree_node_base", i64 }
%"struct.std::_Rb_tree_node_base" = type { i32, ptr, ptr, ptr }
%"class.std::basic_string_view" = type { i64, ptr }
%"class.absl::lts_20240722::log_internal::Voidify" = type { i8 }
%"class.absl::lts_20240722::log_internal::LogMessage" = type { %"class.absl::lts_20240722::base_internal::ErrnoSaver", %"class.std::unique_ptr" }
%"class.absl::lts_20240722::base_internal::ErrnoSaver" = type { i32 }
%"class.std::unique_ptr" = type { %"struct.std::__uniq_ptr_data" }
%"struct.std::__uniq_ptr_data" = type { %"class.std::__uniq_ptr_impl" }
%"class.std::__uniq_ptr_impl" = type { %"class.std::tuple" }
%"class.std::tuple" = type { %"struct.std::_Tuple_impl" }
%"struct.std::_Tuple_impl" = type { %"struct.std::_Head_base.29" }
%"struct.std::_Head_base.29" = type { ptr }
%"class.absl::lts_20240722::log_internal::LogMessageFatal" = type { %"class.absl::lts_20240722::log_internal::LogMessage" }
%class.anon.30 = type { i8 }
%"class.grpc_core::Thread" = type { i32, ptr, %"class.grpc_core::Thread::Options" }
%"class.grpc_core::Thread::Options" = type { i8, i8, i64 }
%"class.grpc_core::FileWatcherCertificateProvider" = type { %struct.grpc_tls_certificate_provider, %"class.std::__cxx11::basic_string", %"class.std::__cxx11::basic_string", %"class.std::__cxx11::basic_string", i64, %"class.grpc_core::RefCountedPtr", %"class.grpc_core::Thread", %struct.gpr_event, %"class.absl::lts_20240722::Mutex", %"class.std::__cxx11::basic_string", %"class.std::vector", %"class.std::map.18" }
%struct.gpr_event = type { i64 }
%"class.std::map.18" = type { %"class.std::_Rb_tree.19" }
%"class.std::_Rb_tree.19" = type { %"struct.std::_Rb_tree<std::__cxx11::basic_string<char>, std::pair<const std::__cxx11::basic_string<char>, grpc_core::FileWatcherCertificateProvider::WatcherInfo>, std::_Select1st<std::pair<const std::__cxx11::basic_string<char>, grpc_core::FileWatcherCertificateProvider::WatcherInfo>>, std::less<std::__cxx11::basic_string<char>>>::_Rb_tree_impl" }
%"struct.std::_Rb_tree<std::__cxx11::basic_string<char>, std::pair<const std::__cxx11::basic_string<char>, grpc_core::FileWatcherCertificateProvider::WatcherInfo>, std::_Select1st<std::pair<const std::__cxx11::basic_string<char>, grpc_core::FileWatcherCertificateProvider::WatcherInfo>>, std::less<std::__cxx11::basic_string<char>>>::_Rb_tree_impl" = type { [8 x i8], %"struct.std::_Rb_tree_header" }
%struct.gpr_timespec = type { i64, i32, i32 }

@.str.1 = private unnamed_addr constant [158 x i8] c"generated/home/dtcxzyw/WorkSpace/Projects/compilers/llvm-opt-benchmark/bench/grpc/grpc/src/core/lib/security/credentials/tls/grpc_tls_certificate_provider.cc\00", align 1
@.str.24 = private unnamed_addr constant [20 x i8] c"provider != nullptr\00", align 1

; Function Attrs: mustprogress nounwind uwtable
define available_externally noundef ptr @_ZNKSt7__cxx1112basic_stringIcSt11char_traitsIcESaIcEE7_M_dataEv(ptr noundef nonnull align 8 dereferenceable(32) %0) #6 align 2 {
  %2 = alloca ptr, align 8
  store ptr %0, ptr %2, align 8, !tbaa !8
  %3 = load ptr, ptr %2, align 8
  %4 = getelementptr inbounds nuw %"class.std::__cxx11::basic_string", ptr %3, i32 0, i32 0
  %5 = getelementptr inbounds nuw %"struct.std::__cxx11::basic_string<char>::_Alloc_hider", ptr %4, i32 0, i32 0
  %6 = load ptr, ptr %5, align 8, !tbaa !418
  ret ptr %6
}

; Function Attrs: mustprogress nounwind uwtable
define linkonce_odr void @_ZNSt17basic_string_viewIcSt11char_traitsIcEEC2EPKcm(ptr noundef nonnull align 8 dereferenceable(16) %0, ptr noundef %1, i64 noundef %2) unnamed_addr #6 comdat align 2 {
  %4 = alloca ptr, align 8
  %5 = alloca ptr, align 8
  %6 = alloca i64, align 8
  store ptr %0, ptr %4, align 8, !tbaa !45
  store ptr %1, ptr %5, align 8, !tbaa !47
  store i64 %2, ptr %6, align 8, !tbaa !59
  %7 = load ptr, ptr %4, align 8
  %8 = getelementptr inbounds nuw %"class.std::basic_string_view", ptr %7, i32 0, i32 0
  %9 = load i64, ptr %6, align 8, !tbaa !59
  store i64 %9, ptr %8, align 8, !tbaa !49
  %10 = getelementptr inbounds nuw %"class.std::basic_string_view", ptr %7, i32 0, i32 1
  %11 = load ptr, ptr %5, align 8, !tbaa !47
  store ptr %11, ptr %10, align 8, !tbaa !52
  ret void
}

; Function Attrs: mustprogress nounwind uwtable
define available_externally noundef i64 @_ZNKSt7__cxx1112basic_stringIcSt11char_traitsIcESaIcEE4sizeEv(ptr noundef nonnull align 8 dereferenceable(32) %0) #6 align 2 {
  %2 = alloca ptr, align 8
  store ptr %0, ptr %2, align 8, !tbaa !8
  %3 = load ptr, ptr %2, align 8
  %4 = getelementptr inbounds nuw %"class.std::__cxx11::basic_string", ptr %3, i32 0, i32 1
  %5 = load i64, ptr %4, align 8, !tbaa !421
  ret i64 %5
}

; Function Attrs: mustprogress nounwind uwtable
define available_externally noundef ptr @_ZNKSt7__cxx1112basic_stringIcSt11char_traitsIcESaIcEE4dataEv(ptr noundef nonnull align 8 dereferenceable(32) %0) #6 align 2 {
  %2 = alloca ptr, align 8
  store ptr %0, ptr %2, align 8, !tbaa !8
  %3 = load ptr, ptr %2, align 8
  %4 = call noundef ptr @_ZNKSt7__cxx1112basic_stringIcSt11char_traitsIcESaIcEE7_M_dataEv(ptr noundef nonnull align 8 dereferenceable(32) %3)
  ret ptr %4
}

; Function Attrs: mustprogress uwtable
define internal { i64, i64 } @_ZN9grpc_core12_GLOBAL__N_124TimeoutSecondsToDeadlineEl(i64 noundef %0) #4 {
  %2 = alloca %struct.gpr_timespec, align 8
  %3 = alloca i64, align 8
  %4 = alloca %struct.gpr_timespec, align 8
  %5 = alloca %struct.gpr_timespec, align 8
  store i64 %0, ptr %3, align 8, !tbaa !59
  %6 = call { i64, i64 } @gpr_now(i32 noundef 0)
  %7 = getelementptr inbounds nuw { i64, i64 }, ptr %4, i32 0, i32 0
  %8 = extractvalue { i64, i64 } %6, 0
  store i64 %8, ptr %7, align 8
  %9 = getelementptr inbounds nuw { i64, i64 }, ptr %4, i32 0, i32 1
  %10 = extractvalue { i64, i64 } %6, 1
  store i64 %10, ptr %9, align 8
  %11 = load i64, ptr %3, align 8, !tbaa !59
  %12 = call { i64, i64 } @gpr_time_from_seconds(i64 noundef %11, i32 noundef 3)
  %13 = getelementptr inbounds nuw { i64, i64 }, ptr %5, i32 0, i32 0
  %14 = extractvalue { i64, i64 } %12, 0
  store i64 %14, ptr %13, align 8
  %15 = getelementptr inbounds nuw { i64, i64 }, ptr %5, i32 0, i32 1
  %16 = extractvalue { i64, i64 } %12, 1
  store i64 %16, ptr %15, align 8
  %17 = getelementptr inbounds nuw { i64, i64 }, ptr %4, i32 0, i32 0
  %18 = load i64, ptr %17, align 8
  %19 = getelementptr inbounds nuw { i64, i64 }, ptr %4, i32 0, i32 1
  %20 = load i64, ptr %19, align 8
  %21 = getelementptr inbounds nuw { i64, i64 }, ptr %5, i32 0, i32 0
  %22 = load i64, ptr %21, align 8
  %23 = getelementptr inbounds nuw { i64, i64 }, ptr %5, i32 0, i32 1
  %24 = load i64, ptr %23, align 8
  %25 = call { i64, i64 } @gpr_time_add(i64 %18, i64 %20, i64 %22, i64 %24)
  %26 = getelementptr inbounds nuw { i64, i64 }, ptr %2, i32 0, i32 0
  %27 = extractvalue { i64, i64 } %25, 0
  store i64 %27, ptr %26, align 8
  %28 = getelementptr inbounds nuw { i64, i64 }, ptr %2, i32 0, i32 1
  %29 = extractvalue { i64, i64 } %25, 1
  store i64 %29, ptr %28, align 8
  %30 = load { i64, i64 }, ptr %2, align 8
  ret { i64, i64 } %30
}

; Function Attrs: mustprogress nounwind uwtable
define linkonce_odr void @_ZNKO4absl12lts_2024072212log_internal7VoidifyaaINS1_10LogMessageEEEvRKT_(ptr noundef nonnull align 1 dereferenceable(1) %0, ptr noundef nonnull align 8 dereferenceable(16) %1) #6 comdat align 2 {
  %3 = alloca ptr, align 8
  %4 = alloca ptr, align 8
  store ptr %0, ptr %3, align 8, !tbaa !117
  store ptr %1, ptr %4, align 8, !tbaa !119
  ret void
}

; Function Attrs: mustprogress nounwind uwtable
define linkonce_odr noundef nonnull align 8 dereferenceable(16) ptr @_ZN4absl12lts_2024072212log_internal10LogMessage14InternalStreamEv(ptr noundef nonnull align 8 dereferenceable(16) %0) #6 comdat align 2 {
  %2 = alloca ptr, align 8
  store ptr %0, ptr %2, align 8, !tbaa !119
  %3 = load ptr, ptr %2, align 8
  ret ptr %3
}

; Function Attrs: mustprogress nounwind uwtable
define available_externally { i64, ptr } @_ZNKSt7__cxx1112basic_stringIcSt11char_traitsIcESaIcEEcvSt17basic_string_viewIcS2_EEv(ptr noundef nonnull align 8 dereferenceable(32) %0) #6 align 2 {
  %2 = alloca %"class.std::basic_string_view", align 8
  %3 = alloca ptr, align 8
  store ptr %0, ptr %3, align 8, !tbaa !8
  %4 = load ptr, ptr %3, align 8
  %5 = call noundef ptr @_ZNKSt7__cxx1112basic_stringIcSt11char_traitsIcESaIcEE4dataEv(ptr noundef nonnull align 8 dereferenceable(32) %4) #3
  %6 = call noundef i64 @_ZNKSt7__cxx1112basic_stringIcSt11char_traitsIcESaIcEE4sizeEv(ptr noundef nonnull align 8 dereferenceable(32) %4) #3
  call void @_ZNSt17basic_string_viewIcSt11char_traitsIcEEC2EPKcm(ptr noundef nonnull align 8 dereferenceable(16) %2, ptr noundef %5, i64 noundef %6) #3
  %7 = load { i64, ptr }, ptr %2, align 8
  ret { i64, ptr } %7
}

; Function Attrs: inlinehint mustprogress uwtable
define linkonce_odr noundef ptr @_ZN4absl12lts_2024072212log_internal12Check_NEImplIPN9grpc_core30FileWatcherCertificateProviderEDnEEPNSt7__cxx1112basic_stringIcSt11char_traitsIcESaIcEEERKT_RKT0_PKc(ptr noundef nonnull align 8 dereferenceable(8) %0, ptr noundef nonnull align 8 dereferenceable(8) %1, ptr noundef %2) #5 comdat {
  %4 = alloca ptr, align 8
  %5 = alloca ptr, align 8
  %6 = alloca ptr, align 8
  store ptr %0, ptr %4, align 8, !tbaa !320
  store ptr %1, ptr %5, align 8, !tbaa !322
  store ptr %2, ptr %6, align 8, !tbaa !47
  %7 = load ptr, ptr %4, align 8, !tbaa !320
  %8 = load ptr, ptr %7, align 8, !tbaa !74
  %9 = icmp ne ptr %8, null
  %10 = zext i1 %9 to i64
  %11 = call i64 @llvm.expect.i64(i64 %10, i64 1)
  %12 = icmp ne i64 %11, 0
  br i1 %12, label %13, label %14

13:                                               ; preds = %3
  br label %19

14:                                               ; preds = %3
  %15 = load ptr, ptr %4, align 8, !tbaa !320
  %16 = load ptr, ptr %15, align 8, !tbaa !74
  %17 = load ptr, ptr %6, align 8, !tbaa !47
  %18 = call noundef nonnull ptr @_ZN4absl12lts_2024072212log_internal17MakeCheckOpStringIPKvS4_EEPNSt7__cxx1112basic_stringIcSt11char_traitsIcESaIcEEET_T0_PKc(ptr noundef %16, ptr noundef null, ptr noundef %17)
  br label %19

19:                                               ; preds = %14, %13
  %20 = phi ptr [ null, %13 ], [ %18, %14 ]
  ret ptr %20
}

; Function Attrs: inlinehint mustprogress nounwind uwtable
define linkonce_odr noundef nonnull align 8 dereferenceable(8) ptr @_ZN4absl12lts_2024072212log_internal21GetReferenceableValueIDnEERKT_S5_(ptr noundef nonnull align 8 dereferenceable(8) %0) #7 comdat {
  %2 = alloca ptr, align 8
  store ptr %0, ptr %2, align 8, !tbaa !322
  %3 = load ptr, ptr %2, align 8, !tbaa !322
  ret ptr %3
}

; Function Attrs: inlinehint mustprogress nounwind uwtable
define linkonce_odr noundef nonnull align 8 dereferenceable(8) ptr @_ZN4absl12lts_2024072212log_internal21GetReferenceableValueIPN9grpc_core30FileWatcherCertificateProviderEEERKT_S8_(ptr noundef nonnull align 8 dereferenceable(8) %0) #7 comdat {
  %2 = alloca ptr, align 8
  store ptr %0, ptr %2, align 8, !tbaa !320
  %3 = load ptr, ptr %2, align 8, !tbaa !320
  ret ptr %3
}

; Function Attrs: inlinehint mustprogress uwtable
define internal void @"_ZZN9grpc_core30FileWatcherCertificateProviderC1ENSt7__cxx1112basic_stringIcSt11char_traitsIcESaIcEEES6_S6_lENK3$_0clEPv"(ptr noundef nonnull align 1 dereferenceable(1) %0, ptr noundef %1) #5 align 2 personality ptr @__gxx_personality_v0 {
  %3 = alloca ptr, align 8
  %4 = alloca ptr, align 8
  %5 = alloca ptr, align 8
  %6 = alloca ptr, align 8
  %7 = alloca ptr, align 8
  %8 = alloca %"class.absl::lts_20240722::log_internal::Voidify", align 1
  %9 = alloca %"class.absl::lts_20240722::log_internal::LogMessageFatal", align 8
  %10 = alloca %"class.std::basic_string_view", align 8
  %11 = alloca ptr, align 8
  %12 = alloca i32, align 4
  %13 = alloca ptr, align 8
  %14 = alloca %struct.gpr_timespec, align 8
  %15 = alloca i32, align 4
  store ptr %0, ptr %3, align 8, !tbaa !31
  store ptr %1, ptr %4, align 8, !tbaa !31
  call void @llvm.lifetime.start.p0(i64 8, ptr %5) #3
  %16 = load ptr, ptr %4, align 8, !tbaa !31
  store ptr %16, ptr %5, align 8, !tbaa !74
  br label %17

17:                                               ; preds = %2
  call void @llvm.lifetime.start.p0(i64 8, ptr %6) #3
  %18 = call noundef nonnull align 8 dereferenceable(8) ptr @_ZN4absl12lts_2024072212log_internal21GetReferenceableValueIPN9grpc_core30FileWatcherCertificateProviderEEERKT_S8_(ptr noundef nonnull align 8 dereferenceable(8) %5)
  call void @llvm.lifetime.start.p0(i64 8, ptr %7) #3
  store ptr null, ptr %7, align 8, !tbaa !42
  %19 = call noundef nonnull align 8 dereferenceable(8) ptr @_ZN4absl12lts_2024072212log_internal21GetReferenceableValueIDnEERKT_S5_(ptr noundef nonnull align 8 dereferenceable(8) %7)
  %20 = call noundef ptr @_ZN4absl12lts_2024072212log_internal12Check_NEImplIPN9grpc_core30FileWatcherCertificateProviderEDnEEPNSt7__cxx1112basic_stringIcSt11char_traitsIcESaIcEEERKT_RKT0_PKc(ptr noundef nonnull align 8 dereferenceable(8) %18, ptr noundef nonnull align 8 dereferenceable(8) %19, ptr noundef @.str.24)
  call void @llvm.lifetime.end.p0(i64 8, ptr %7) #3
  store ptr %20, ptr %6, align 8, !tbaa !8
  %21 = load ptr, ptr %6, align 8, !tbaa !8
  %22 = icmp ne ptr %21, null
  br i1 %22, label %24, label %23

23:                                               ; preds = %17
  call void @llvm.lifetime.end.p0(i64 8, ptr %6) #3
  br label %42

24:                                               ; preds = %17
  call void @llvm.lifetime.start.p0(i64 1, ptr %8) #3
  call void @llvm.lifetime.start.p0(i64 16, ptr %9) #3
  %25 = load ptr, ptr %6, align 8, !tbaa !8
  %26 = call { i64, ptr } @_ZNKSt7__cxx1112basic_stringIcSt11char_traitsIcESaIcEEcvSt17basic_string_viewIcS2_EEv(ptr noundef nonnull align 8 dereferenceable(32) %25) #3
  %27 = getelementptr inbounds nuw { i64, ptr }, ptr %10, i32 0, i32 0
  %28 = extractvalue { i64, ptr } %26, 0
  store i64 %28, ptr %27, align 8
  %29 = getelementptr inbounds nuw { i64, ptr }, ptr %10, i32 0, i32 1
  %30 = extractvalue { i64, ptr } %26, 1
  store ptr %30, ptr %29, align 8
  %31 = getelementptr inbounds nuw { i64, ptr }, ptr %10, i32 0, i32 0
  %32 = load i64, ptr %31, align 8
  %33 = getelementptr inbounds nuw { i64, ptr }, ptr %10, i32 0, i32 1
  %34 = load ptr, ptr %33, align 8
  call void @_ZN4absl12lts_2024072212log_internal15LogMessageFatalC1EPKciSt17basic_string_viewIcSt11char_traitsIcEE(ptr noundef nonnull align 8 dereferenceable(16) %9, ptr noundef @.str.1, i32 noundef 201, i64 %32, ptr %34) #30
  %35 = call noundef nonnull align 8 dereferenceable(16) ptr @_ZN4absl12lts_2024072212log_internal10LogMessage14InternalStreamEv(ptr noundef nonnull align 8 dereferenceable(16) %9)
  invoke void @_ZNKO4absl12lts_2024072212log_internal7VoidifyaaINS1_10LogMessageEEEvRKT_(ptr noundef nonnull align 1 dereferenceable(1) %8, ptr noundef nonnull align 8 dereferenceable(16) %35)
          to label %36 unwind label %37

36:                                               ; preds = %24
  call void @_ZN4absl12lts_2024072212log_internal15LogMessageFatalD1Ev(ptr noundef nonnull align 8 dereferenceable(16) %9) #29
  unreachable

37:                                               ; preds = %24
  %38 = landingpad { ptr, i32 }
          cleanup
  %39 = extractvalue { ptr, i32 } %38, 0
  store ptr %39, ptr %11, align 8
  %40 = extractvalue { ptr, i32 } %38, 1
  store i32 %40, ptr %12, align 4
  call void @_ZN4absl12lts_2024072212log_internal15LogMessageFatalD1Ev(ptr noundef nonnull align 8 dereferenceable(16) %9) #29
  unreachable

41:                                               ; No predecessors!
  call void @llvm.lifetime.end.p0(i64 16, ptr %9) #3
  call void @llvm.lifetime.end.p0(i64 1, ptr %8) #3
  call void @llvm.lifetime.end.p0(i64 8, ptr %6) #3
  call void @llvm.lifetime.end.p0(i64 8, ptr %5) #3
  br label %69

42:                                               ; preds = %23
  br label %43

43:                                               ; preds = %67, %42
  br label %44

44:                                               ; preds = %43
  call void @llvm.lifetime.start.p0(i64 8, ptr %13) #3
  %45 = load ptr, ptr %5, align 8, !tbaa !74
  %46 = getelementptr inbounds nuw %"class.grpc_core::FileWatcherCertificateProvider", ptr %45, i32 0, i32 7
  %47 = load ptr, ptr %5, align 8, !tbaa !74
  %48 = getelementptr inbounds nuw %"class.grpc_core::FileWatcherCertificateProvider", ptr %47, i32 0, i32 4
  %49 = load i64, ptr %48, align 8, !tbaa !76
  %50 = call { i64, i64 } @_ZN9grpc_core12_GLOBAL__N_124TimeoutSecondsToDeadlineEl(i64 noundef %49)
  %51 = getelementptr inbounds nuw { i64, i64 }, ptr %14, i32 0, i32 0
  %52 = extractvalue { i64, i64 } %50, 0
  store i64 %52, ptr %51, align 8
  %53 = getelementptr inbounds nuw { i64, i64 }, ptr %14, i32 0, i32 1
  %54 = extractvalue { i64, i64 } %50, 1
  store i64 %54, ptr %53, align 8
  %55 = getelementptr inbounds nuw { i64, i64 }, ptr %14, i32 0, i32 0
  %56 = load i64, ptr %55, align 8
  %57 = getelementptr inbounds nuw { i64, i64 }, ptr %14, i32 0, i32 1
  %58 = load i64, ptr %57, align 8
  %59 = call ptr @gpr_event_wait(ptr noundef %46, i64 %56, i64 %58)
  store ptr %59, ptr %13, align 8, !tbaa !31
  %60 = load ptr, ptr %13, align 8, !tbaa !31
  %61 = icmp ne ptr %60, null
  br i1 %61, label %62, label %63

62:                                               ; preds = %44
  store i32 1, ptr %15, align 4
  br label %65

63:                                               ; preds = %44
  %64 = load ptr, ptr %5, align 8, !tbaa !74
  call void @_ZN9grpc_core30FileWatcherCertificateProvider11ForceUpdateEv(ptr noundef nonnull align 8 dereferenceable(280) %64)
  store i32 0, ptr %15, align 4
  br label %65

65:                                               ; preds = %63, %62
  call void @llvm.lifetime.end.p0(i64 8, ptr %13) #3
  %66 = load i32, ptr %15, align 4
  switch i32 %66, label %68 [
    i32 0, label %67
  ]

67:                                               ; preds = %65
  br label %43, !llvm.loop !319

68:                                               ; preds = %65
  call void @llvm.lifetime.end.p0(i64 8, ptr %5) #3
  ret void

69:                                               ; preds = %41
  %70 = load ptr, ptr %11, align 8
  %71 = load i32, ptr %12, align 4
  %72 = insertvalue { ptr, i32 } poison, ptr %70, 0
  %73 = insertvalue { ptr, i32 } %72, i32 %71, 1
  resume { ptr, i32 } %73
}

; Function Attrs: inlinehint mustprogress uwtable
define internal void @"_ZZN9grpc_core30FileWatcherCertificateProviderC1ENSt7__cxx1112basic_stringIcSt11char_traitsIcESaIcEEES6_S6_lEN3$_08__invokeEPv"(ptr noundef %0) #5 align 2 {
  %2 = alloca ptr, align 8
  %3 = alloca %class.anon.30, align 1
  store ptr %0, ptr %2, align 8, !tbaa !31
  %4 = load ptr, ptr %2, align 8, !tbaa !31
  call void @"_ZZN9grpc_core30FileWatcherCertificateProviderC1ENSt7__cxx1112basic_stringIcSt11char_traitsIcESaIcEEES6_S6_lENK3$_0clEPv"(ptr noundef nonnull align 1 dereferenceable(1) %3, ptr noundef %4)
  ret void
}