; Function Attrs: inlinehint mustprogress uwtable
define internal void @"_ZZN9grpc_core30FileWatcherCertificateProviderC1ENSt7__cxx1112basic_stringIcSt11char_traitsIcESaIcEEES6_S6_lEN3$_08__invokeEPv"(ptr noundef %0) #23 align 2 personality ptr @__gxx_personality_v0 {
  %2 = alloca %"class.absl::lts_20240722::log_internal::LogMessageFatal", align 8
  %.not.i.i = icmp eq ptr %0, null
  br i1 %.not.i.i, label %5, label %_ZN4absl12lts_2024072212log_internal12Check_NEImplIPN9grpc_core30FileWatcherCertificateProviderEDnEEPNSt7__cxx1112basic_stringIcSt11char_traitsIcESaIcEEERKT_RKT0_PKc.exit.preheader.i, !prof !40

_ZN4absl12lts_2024072212log_internal12Check_NEImplIPN9grpc_core30FileWatcherCertificateProviderEDnEEPNSt7__cxx1112basic_stringIcSt11char_traitsIcESaIcEEERKT_RKT0_PKc.exit.preheader.i: ; preds = %1
  %3 = getelementptr inbounds nuw i8, ptr %0, i64 160
  %4 = getelementptr inbounds nuw i8, ptr %0, i64 112
  br label %_ZN4absl12lts_2024072212log_internal12Check_NEImplIPN9grpc_core30FileWatcherCertificateProviderEDnEEPNSt7__cxx1112basic_stringIcSt11char_traitsIcESaIcEEERKT_RKT0_PKc.exit.i

5:                                                ; preds = %1
  %6 = tail call noundef nonnull ptr @_ZN4absl12lts_2024072212log_internal17MakeCheckOpStringIPKvS4_EEPNSt7__cxx1112basic_stringIcSt11char_traitsIcESaIcEEET_T0_PKc(ptr noundef null, ptr noundef null, ptr noundef nonnull @.str.24)
  call void @llvm.lifetime.start.p0(i64 16, ptr nonnull %2) #34
  %7 = load ptr, ptr %6, align 8, !tbaa !28
  %8 = getelementptr inbounds nuw i8, ptr %6, i64 8
  %9 = load i64, ptr %8, align 8, !tbaa !30
  call void @_ZN4absl12lts_2024072212log_internal15LogMessageFatalC1EPKciSt17basic_string_viewIcSt11char_traitsIcEE(ptr noundef nonnull align 8 dereferenceable(16) %2, ptr noundef nonnull @.str.1, i32 noundef 201, i64 %9, ptr %7) #38
  call void @_ZN4absl12lts_2024072212log_internal15LogMessageFatalD1Ev(ptr noundef nonnull align 8 dereferenceable(16) %2) #35
  unreachable

_ZN4absl12lts_2024072212log_internal12Check_NEImplIPN9grpc_core30FileWatcherCertificateProviderEDnEEPNSt7__cxx1112basic_stringIcSt11char_traitsIcESaIcEEERKT_RKT0_PKc.exit.i: ; preds = %21, %_ZN4absl12lts_2024072212log_internal12Check_NEImplIPN9grpc_core30FileWatcherCertificateProviderEDnEEPNSt7__cxx1112basic_stringIcSt11char_traitsIcESaIcEEERKT_RKT0_PKc.exit.preheader.i
  %10 = load i64, ptr %4, align 8, !tbaa !90
  %11 = tail call { i64, i64 } @gpr_now(i32 noundef 0)
  %12 = extractvalue { i64, i64 } %11, 0
  %13 = extractvalue { i64, i64 } %11, 1
  %14 = tail call { i64, i64 } @gpr_time_from_seconds(i64 noundef %10, i32 noundef 3)
  %15 = extractvalue { i64, i64 } %14, 0
  %16 = extractvalue { i64, i64 } %14, 1
  %17 = tail call { i64, i64 } @gpr_time_add(i64 %12, i64 %13, i64 %15, i64 %16)
  %18 = extractvalue { i64, i64 } %17, 0
  %19 = extractvalue { i64, i64 } %17, 1
  %20 = tail call ptr @gpr_event_wait(ptr noundef nonnull %3, i64 %18, i64 %19)
  %.not7.i = icmp eq ptr %20, null
  br i1 %.not7.i, label %21, label %"_ZZN9grpc_core30FileWatcherCertificateProviderC1ENSt7__cxx1112basic_stringIcSt11char_traitsIcESaIcEEES6_S6_lENK3$_0clEPv.exit"

21:                                               ; preds = %_ZN4absl12lts_2024072212log_internal12Check_NEImplIPN9grpc_core30FileWatcherCertificateProviderEDnEEPNSt7__cxx1112basic_stringIcSt11char_traitsIcESaIcEEERKT_RKT0_PKc.exit.i
  tail call void @_ZN9grpc_core30FileWatcherCertificateProvider11ForceUpdateEv(ptr noundef nonnull align 8 dereferenceable(280) %0)
  br label %_ZN4absl12lts_2024072212log_internal12Check_NEImplIPN9grpc_core30FileWatcherCertificateProviderEDnEEPNSt7__cxx1112basic_stringIcSt11char_traitsIcESaIcEEERKT_RKT0_PKc.exit.i, !llvm.loop !186

"_ZZN9grpc_core30FileWatcherCertificateProviderC1ENSt7__cxx1112basic_stringIcSt11char_traitsIcESaIcEEES6_S6_lENK3$_0clEPv.exit": ; preds = %_ZN4absl12lts_2024072212log_internal12Check_NEImplIPN9grpc_core30FileWatcherCertificateProviderEDnEEPNSt7__cxx1112basic_stringIcSt11char_traitsIcESaIcEEERKT_RKT0_PKc.exit.i
  ret void
}